; Function Attrs: mustprogress nofree norecurse nosync nounwind willreturn memory(argmem: write) uwtable
define void @PHP_SHA512InitArgs(ptr nocapture noundef writeonly %0, ptr nocapture readnone %1) #1 {
  %3 = getelementptr inbounds i8, ptr %0, i64 64
  tail call void @llvm.memset.p0.i64(ptr noundef nonnull align 8 dereferenceable(16) %3, i8 0, i64 16, i1 false)
  store i64 7640891576956012808, ptr %0, align 8
  %4 = getelementptr inbounds i8, ptr %0, i64 8
  store i64 -4942790177534073029, ptr %4, align 8
  %5 = getelementptr inbounds i8, ptr %0, i64 16
  store i64 4354685564936845355, ptr %5, align 8
  %6 = getelementptr inbounds i8, ptr %0, i64 24
  store i64 -6534734903238641935, ptr %6, align 8
  %7 = getelementptr inbounds i8, ptr %0, i64 32
  store i64 5840696475078001361, ptr %7, align 8
  %8 = getelementptr inbounds i8, ptr %0, i64 40
  store i64 -7276294671716946913, ptr %8, align 8
  %9 = getelementptr inbounds i8, ptr %0, i64 48
  store i64 2270897969802886507, ptr %9, align 8
  %10 = getelementptr inbounds i8, ptr %0, i64 56
  store i64 6620516959819538809, ptr %10, align 8
  ret void
}